(lp0
(dp1
S'digital-longitude'
p2
V-122.410014
p3
sS'name'
p4
VAdventure Cat
p5
sS'review'
p6
(lp7
sS'poi-id'
p8
V1096697
p9
sS'digital-latitude'
p10
V37.80923963
p11
sS'poi-type'
p12
VDo
p13
sS'telephones'
p14
(lp15
(dp16
a(dp17
Vnumber
p18
V415-777-1630
p19
sa(dp20
asS'address'
p21
(dp22
Vstreet
p23
VPier 39
p24
ssa(dp25
g2
V-122.40129
p26
sg4
VAnchor Brewing Company
p27
sg6
(lp28
sg8
V1088616
p29
sg10
V37.76342
p30
sg12
VDo
p31
sg14
(lp32
(dp33
a(dp34
Varea-code
p35
V415
p36
sVnumber
p37
V863 8350
p38
sa(dp39
asg21
(dp40
Vstreet
p41
V1705 Mariposa St
p42
ssa(dp43
g2
V-122.50475
p44
sg4
VAqua Surf Shop
p45
sg6
(lp46
sg8
V1088831
p47
sg10
V37.73676
p48
sg12
VDo
p49
sg14
(lp50
(dp51
a(dp52
Vnumber
p53
V415-242-9283
p54
sa(dp55
asg21
(dp56
Vstreet
p57
V2830 Sloat Blvd
p58
ssa(dp59
g2
V-122.4530684
p60
sg4
VAvenue Cyclery
p61
sg6
(lp62
sg8
V1056478
p63
sg10
V37.76780315
p64
sg12
VDo
p65
sg14
(lp66
(dp67
a(dp68
Vnumber
p69
V415-387-3155
p70
sa(dp71
asg21
(dp72
Vstreet
p73
V756 Stanyan St
p74
ssa(dp75
g2
V-122.393360137939
p76
sg4
VBakar Fitness & Recreation Center
p77
sg6
(lp78
sg8
V1056467
p79
sg10
V37.7681492509273
p80
sg12
VDo
p81
sg14
(lp82
(dp83
a(dp84
Varea-code
p85
V415
p86
sVnumber
p87
V514 4545
p88
sa(dp89
asg21
(dp90
Vstreet
p91
V1675 Owens & 16th Sts
p92
ssa(dp93
g2
V-122.4834416410004
p94
sg4
VBaker Beach
p95
sg6
(lp96
sg8
V383947
p97
sg10
V37.7931812144903
p98
sg12
VDo
p99
sg14
(lp100
(dp101
asg21
(dp102
Vlocality
p103
VThe Presidio
p104
ssa(dp105
g2
V-122.4024756
p106
sg4
VBarber Lounge
p107
sg6
(lp108
sg8
V1096717
p109
sg10
V37.78131465
p110
sg12
VDo
p111
sg14
(lp112
(dp113
a(dp114
Varea-code
p115
V415
p116
sVnumber
p117
V934 0411
p118
sa(dp119
asg21
(dp120
Vstreet
p121
V854 Folsom St
p122
ssa(dp123
g2
V-122.4037257
p124
sg4
VBella Pelle Skin Studio
p125
sg6
(lp126
sg8
V384179
p127
sg10
V37.78834344
p128
sg12
VDo
p129
sg14
(lp130
(dp131
a(dp132
Varea-code
p133
V415
p134
sVnumber
p135
V362 6384
p136
sa(dp137
asg21
(dp138
Vstreet
p139
V9 Maiden Lane
p140
ssa(dp141
g2
V-122.41601139307
p142
sg4
VBlazing Saddles
p143
sg6
(lp144
sg8
V1056471
p145
sg10
V37.8041533424103
p146
sg12
VDo
p147
sg14
(lp148
(dp149
a(dp150
Vnumber
p151
V415-202-8888
p152
sa(dp153
asg21
(dp154
Vstreet
p155
V2715 Hyde St
p156
ssa(dp157
g2
V-122.393719553947
p158
sg4
VCalifornia Outdoor Rollerskating Association Midnight Rollers
p159
sg6
(lp160
sg8
V1056461
p161
sg10
V37.7953728020675
p162
sg12
VDo
p163
sg14
(lp164
(dp165
a(dp166
Vtext
p167
Vtel, info
p168
sVarea-code
p169
V415
p170
sVnumber
p171
V752 1967
p172
sa(dp173
asg21
(dp174
Vextras
p175
VFerry Building
p176
sVlocality
p177
VSoMa
p178
ssa(dp179
g4
VCalistoga Bike Shop
p180
sg6
(lp181
sg8
V1096765
p182
sg12
VDo
p183
sg14
(lp184
(dp185
a(dp186
Vnumber
p187
V866 942 2453
p188
sa(dp189
a(dp190
Vnumber
p191
V707 942 9687
p192
sa(dp193
asg21
(dp194
Vstreet
p195
V1318 Lincoln Ave
p196
sVlocality
p197
VCalistoga
p198
ssa(dp199
g2
V-122.40192
p200
sg4
VCheryl Burke Dance Center
p201
sg6
(lp202
sg8
V1088779
p203
sg10
V37.76493
p204
sg12
VDo
p205
sg14
(lp206
(dp207
a(dp208
Varea-code
p209
V415
p210
sVnumber
p211
V252 9000
p212
sa(dp213
asg21
(dp214
Vstreet
p215
V1830 17th St
p216
ssa(dp217
g4
VChinatown Alleyway Tours
p218
sg6
(lp219
sg8
V1135286
p220
sg12
VDo
p221
sg14
(lp222
(dp223
a(dp224
Vnumber
p225
V415-984-1478
p226
sa(dp227
asg21
(dp228
sa(dp229
g2
V-122.457006275654
p230
sg4
VCircus Center Trapeze
p231
sg6
(lp232
sg8
V1056493
p233
sg10
V37.7656324423411
p234
sg12
VDo
p235
sg14
(lp236
(dp237
a(dp238
Vtext
p239
Vext 810 for trapeze enrolment
p240
sVarea-code
p241
V415
p242
sVnumber
p243
V759 8123
p244
sa(dp245
asg21
(dp246
Vstreet
p247
V755 Frederick St
p248
ssa(dp249
g2
V-122.3871552
p250
sg4
VCity Kayak
p251
sg6
(lp252
sg8
V1096707
p253
sg10
V37.78163488
p254
sg12
VDo
p255
sg14
(lp256
(dp257
a(dp258
Vnumber
p259
V415-357-1010
p260
sa(dp261
asg21
(dp262
Vstreet
p263
VPier 38,Townsend Sts
p264
sVextras
p265
Vcnr Embarcadero
p266
ssa(dp267
g2
V-122.421263158321
p268
sg4
VCraft Gym
p269
sg6
(lp270
sg8
V1056475
p271
sg10
V37.7887512071769
p272
sg12
VDo
p273
sg14
(lp274
(dp275
a(dp276
Vtext
p277
Vtel, info
p278
sVarea-code
p279
V415
p280
sVnumber
p281
V441 6223
p282
sa(dp283
asg21
(dp284
Vstreet
p285
V1452 Bush St
p286
sVlocality
p287
VCivic Center
p288
ssa(dp289
g4
VCulinary Institute of America
p290
sg6
(lp291
sg8
V1096771
p292
sg12
VDo
p293
sg14
(lp294
(dp295
a(dp296
Varea-code
p297
V707
p298
sVnumber
p299
V967 1100
p300
sa(dp301
asg21
(dp302
Vstreet
p303
V2555 Main St
p304
sVlocality
p305
VSt Helena
p306
ssa(dp307
g2
V-122.4343897
p308
sg4
VDipietro Todd Salon
p309
sg6
(lp310
sg8
V1096720
p311
sg10
V37.78996561
p312
sg12
VDo
p313
sg14
(lp314
(dp315
a(dp316
Varea-code
p317
V415
p318
sVnumber
p319
V674 4366
p320
sa(dp321
asg21
(dp322
Vstreet
p323
V2239 Fillmore St
p324
ssa(dp325
g4
VDolphin South End Running Club
p326
sg6
(lp327
sg8
V1056468
p328
sg12
VDo
p329
sg14
(lp330
(dp331
a(dp332
Vtext
p333
Vtel, info
p334
sVarea-code
p335
V415
p336
sVnumber
p337
V978 0837
p338
sa(dp339
asg21
(dp340
Vlocality
p341
VCivic Center
p342
ssa(dp343
g2
V-122.3923421
p344
sg4
VEmbarcadero YMCA
p345
sg6
(lp346
sg8
V1096722
p347
sg10
V37.79291025
p348
sg12
VDo
p349
sg14
(lp350
(dp351
a(dp352
Varea-code
p353
V415
p354
sVnumber
p355
V957 9622
p356
sa(dp357
asg21
(dp358
Vstreet
p359
V169 Steuart St
p360
ssa(dp361
g2
V-122.43081
p362
sg4
VFemina Potens
p363
sg6
(lp364
sg8
V384169
p365
sg10
V37.7658
p366
sg12
VDo
p367
sg14
(lp368
(dp369
a(dp370
Varea-code
p371
V415
p372
sVnumber
p373
V864 1558
p374
sa(dp375
asg21
(dp376
Vstreet
p377
V2199 Market St
p378
ssa(dp379
g2
V-122.41917
p380
sg4
VFire Engine Tours
p381
sg6
(lp382
sg8
V1135275
p383
sg10
V37.80696
p384
sg12
VDo
p385
sg14
(lp386
(dp387
a(dp388
Vnumber
p389
V415-333-7077
p390
sa(dp391
asg21
(dp392
Vstreet
p393
VBeach St at the Cannery
p394
ssa(dp395
g4
VF Line Streetcar
p396
sg6
(lp397
sg8
V1056462
p398
sg12
VDo
p399
sg14
(lp400
(dp401
a(dp402
Vtext
p403
Vtel, info
p404
sVarea-code
p405
V415
p406
sVnumber
p407
V673 6844
p408
sa(dp409
asg21
(dp410
Vlocality
p411
VChinatown
p412
ssa(dp413
g2
V-122.496727108955
p414
sg4
VFlycasting Club
p415
sg6
(lp416
sg8
V1056498
p417
sg10
V37.7678693741717
p418
sg12
VDo
p419
sg14
(lp420
(dp421
asg21
(dp422
Vextras
p423
VMcLaren Anglers\u2019 Lodge & Casting Pools, John F Kennedy Dr, Golden Gate Park
p424
ssa(dp425
g2
V-122.411674261093
p426
sg4
VFolsom Street Fair
p427
sg6
(lp428
sg8
V1135296
p429
sg10
V37.7737762451859
p430
sg12
VDo
p431
sg14
(lp432
(dp433
a(dp434
Vnumber
p435
V415-777-3247
p436
sa(dp437
asg21
(dp438
Vstreet
p439
VFolsom Street (between 7th and 12th Streets)
p440
ssa(dp441
g4
VFoot! Tours
p442
sg6
(lp443
sg8
V1056496
p444
sg12
VDo
p445
sg14
(lp446
(dp447
a(dp448
Vtext
p449
Vtel, info
p450
sVarea-code
p451
V415
p452
sVnumber
p453
V793 5378
p454
sa(dp455
asg21
(dp456
Vlocality
p457
VChinatown
p458
ssa(dp459
g2
V-122.506549358368
p460
sg4
VGolden Gate Municipal Golf Course
p461
sg6
(lp462
sg8
V1056480
p463
sg10
V37.7690736848048
p464
sg12
VDo
p465
sg14
(lp466
(dp467
a(dp468
Varea-code
p469
V415
p470
sVnumber
p471
V751 8987
p472
sa(dp473
asg21
(dp474
Vstreet
p475
V47th Ave & Fulton St
p476
ssa(dp477
g2
V-122.463939785957
p478
sg4
VGolden Gate Park Bike & Skate
p479
sg6
(lp480
sg8
V1056481
p481
sg10
V37.7738122870997
p482
sg12
VDo
p483
sg14
(lp484
(dp485
a(dp486
Varea-code
p487
V415
p488
sVnumber
p489
V668 1117
p490
sa(dp491
asg21
(dp492
Vstreet
p493
V3038 Fulton St
p494
ssa(dp495
g4
VGold\u2019s Gym (Castro)
p496
sg6
(lp497
sg8
V1096758
p498
sg12
VDo
p499
sg14
(lp500
(dp501
a(dp502
Varea-code
p503
V415
p504
sVnumber
p505
V626 4488
p506
sa(dp507
asg21
(dp508
Vstreet
p509
V2301 Market St
p510
sVlocality
p511
VCastro
p512
ssa(dp513
g4
VGold's Gym (SoMa)
p514
sg6
(lp515
sg8
V1096759
p516
sg12
VDo
p517
sg14
(lp518
(dp519
a(dp520
Varea-code
p521
V415
p522
sVnumber
p523
V552 4653
p524
sa(dp525
asg21
(dp526
Vstreet
p527
V1001 Brannan St
p528
ssa(dp529
g4
VHalf Moon Bay Kayaking
p530
sg6
(lp531
sg8
V1096916
p532
sg12
VDo
p533
sg14
(lp534
(dp535
a(dp536
Varea-code
p537
V650
p538
sVnumber
p539
V773 6101
p540
sa(dp541
asg21
(dp542
Vstreet
p543
VPillar Point Harbor
p544
ssa(dp545
g2
V-122.493717670441
p546
sg4
VHarding Park Municipal Golf Course
p547
sg6
(lp548
sg8
V1056476
p549
sg10
V37.7246878248637
p550
sg12
VDo
p551
sg14
(lp552
(dp553
a(dp554
Varea-code
p555
V415
p556
sVnumber
p557
V664 4690
p558
sa(dp559
asg21
(dp560
Vstreet
p561
V99 Harding Rd
p562
sVextras
p563
Vat Skyline Blvd
p564
ssa(dp565
g4
VHash House Harriers
p566
sg6
(lp567
sg8
V1056488
p568
sg12
VDo
p569
sg14
(lp570
(dp571
asg21
(dp572
sa(dp573
g2
V-122.4050336
p574
sg4
VIt\u2019s Yoga
p575
sg6
(lp576
sg8
V1096706
p577
sg10
V37.77851172
p578
sg12
VDo
p579
sg14
(lp580
(dp581
a(dp582
Varea-code
p583
V415
p584
sVnumber
p585
V543 1970
p586
sa(dp587
asg21
(dp588
Vstreet
p589
V307a 5th St
p590
ssa(dp591
g2
V-122.432219982147
p592
sg4
VKabuki Hot Springs
p593
sg6
(lp594
sg8
V1056494
p595
sg10
V37.7850798239666
p596
sg12
VDo
p597
sg14
(lp598
(dp599
a(dp600
Vnumber
p601
V415-922-6000
p602
sa(dp603
asg21
(dp604
Vstreet
p605
V1750 Geary Blvd
p606
ssa(dp607
g2
V-122.464117
p608
sg4
VKennedy Drive Freestyle Roller Dance
p609
sg6
(lp610
sg8
V1096696
p611
sg10
V37.772338
p612
sg12
VDo
p613
sg14
(lp614
(dp615
asg21
(dp616
Vstreet
p617
V6th Ave
p618
sVextras
p619
VGolden Gate Park, at John F Kennedy Dr
p620
ssa(dp621
g2
V-122.464117
p622
sg4
VKennedy Drive Freestyle Skaters
p623
sg6
(lp624
sg8
V1056485
p625
sg10
V37.772338
p626
sg12
VDo
p627
sg14
(lp628
(dp629
asg21
(dp630
Vstreet
p631
V6th Ave at Kennedy Dr
p632
sVlocality
p633
VGolden Gate Park
p634
ssa(dp635
g2
V-122.454589605331
p636
sg4
VKoret Pool
p637
sg6
(lp638
sg8
V1056486
p639
sg10
V37.7766341024006
p640
sg12
VDo
p641
sg14
(lp642
(dp643
a(dp644
Varea-code
p645
V415
p646
sVnumber
p647
V422 6821
p648
sa(dp649
asg21
(dp650
Vstreet
p651
VParker Ave & Turk St
p652
ssa(dp653
g2
V-122.4139782786369
p654
sg4
VLa Cocina
p655
sg6
(lp656
sg8
V1088657
p657
sg10
V37.7502116745906
p658
sg12
VDo
p659
sg14
(lp660
(dp661
a(dp662
Varea-code
p663
V415
p664
sVnumber
p665
V824 2729
p666
sa(dp667
asg21
(dp668
Vstreet
p669
V2948 Folsom St
p670
ssa(dp671
g2
V-122.459396123886
p672
sg4
VLawn Bowling Club
p673
sg6
(lp674
sg8
V1056489
p675
sg10
V37.7686029882653
p676
sg12
VDo
p677
sg14
(lp678
(dp679
a(dp680
Varea-code
p681
V415
p682
sVnumber
p683
V487 8787
p684
sa(dp685
asg21
(dp686
Vstreet
p687
VBowling Green Dr
p688
sVextras
p689
VGolden Gate Park
p690
ssa(dp691
g2
V-122.496557
p692
sg4
VLincoln Park Golf Course
p693
sg6
(lp694
sg8
V1056483
p695
sg10
V37.78411639
p696
sg12
VDo
p697
sg14
(lp698
(dp699
a(dp700
Varea-code
p701
V415
p702
sVnumber
p703
V221 9911
p704
sa(dp705
asg21
(dp706
Vstreet
p707
V34th Ave & Clement St
p708
ssa(dp709
g2
V-122.467002868652
p710
sg4
VLindy in the Park
p711
sg6
(lp712
sg8
V1056465
p713
sg10
V37.7729027534315
p714
sg12
VDo
p715
sg14
(lp716
(dp717
asg21
(dp718
Vstreet
p719
VJohn F Kennedy Dr
p720
sVextras
p721
VGolden Gate Park, btwn 8th & 10th Aves
p722
ssa(dp723
g2
V-122.412489652634
p724
sg4
VMission Cliffs
p725
sg6
(lp726
sg8
V1056477
p727
sg10
V37.7604437722163
p728
sg12
VDo
p729
sg14
(lp730
(dp731
a(dp732
Vtext
p733
Vtel, info
p734
sVnumber
p735
V415 550 0515
p736
sa(dp737
asg21
(dp738
Vstreet
p739
V2295 Harrison St
p740
sVlocality
p741
VThe Mission
p742
ssa(dp743
g2
V-122.418165206909
p744
sg4
VMission Cultural Center for Latino Arts
p745
sg6
(lp746
sg8
V1056456
p747
sg10
V37.751206317776
p748
sg12
VDo
p749
sg14
(lp750
(dp751
a(dp752
Varea-code
p753
V415
p754
sVnumber
p755
V643 2785
p756
sa(dp757
asg21
(dp758
Vstreet
p759
V2868 Mission St
p760
ssa(dp761
g4
VNapa Valley Adventure Tours
p762
sg6
(lp763
sg8
V1096768
p764
sg12
VDo
p765
sg14
(lp766
(dp767
a(dp768
Varea-code
p769
V707
p770
sVnumber
p771
V259 1833
p772
sa(dp773
a(dp774
Vnumber
p775
V877 548 6877
p776
sa(dp777
asg21
(dp778
Vstreet
p779
V610 1st St
p780
sVextras
p781
VOxbow Public Market
p782
sVlocality
p783
VNapa
p784
ssa(dp785
g4
VNapa Valley Wine Train
p786
sg6
(lp787
sg8
V1096769
p788
sg12
VDo
p789
sg14
(lp790
(dp791
a(dp792
Vnumber
p793
V800 427 4124
p794
sa(dp795
a(dp796
Vnumber
p797
V707 253 2111
p798
sa(dp799
asg21
(dp800
sa(dp801
g2
V-122.5121071
p802
sg4
VOcean Beach
p803
sg6
(lp804
sg8
V384055
p805
sg10
V37.76748577
p806
sg12
VDo
p807
sg14
(lp808
(dp809
a(dp810
Vnumber
p811
V415-556-8371
p812
sa(dp813
asg21
(dp814
Vlocality
p815
VThe Sunset
p816
ssa(dp817
g2
V-122.4320651
p818
sg4
VOceanic Society Expeditions
p819
sg6
(lp820
sg8
V1056473
p821
sg10
V37.80649159
p822
sg12
VDo
p823
sg14
(lp824
(dp825
a(dp826
Vnumber
p827
V800-326-7491
p828
sa(dp829
asg21
(dp830
Vextras
p831
VFort Mason, bldg E
p832
ssa(dp833
g2
V-122.407334446907
p834
sg4
VOnetaste Urban Retreat Center
p835
sg6
(lp836
sg8
V1056455
p837
sg10
V37.7773697495464
p838
sg12
VDo
p839
sg14
(lp840
(dp841
a(dp842
Vtext
p843
Vtel, info
p844
sVnumber
p845
V415 503 1100
p846
sa(dp847
asg21
(dp848
Vstreet
p849
V1074 Folsom St
p850
sVlocality
p851
VSoMa
p852
ssa(dp853
g2
V-122.458218634129
p854
sg4
VOutdoors Unlimited Kayaking
p855
sg6
(lp856
sg8
V1056497
p857
sg10
V37.7635714367305
p858
sg12
VDo
p859
sg14
(lp860
(dp861
a(dp862
Vtext
p863
Vtel, info
p864
sVarea-code
p865
V415
p866
sVnumber
p867
V476 2078
p868
sa(dp869
asg21
(dp870
Vstreet
p871
V550 Parnassus Ave
p872
sVlocality
p873
VGolden Gate Park
p874
ssa(dp875
g2
V-122.4625673
p876
sg4
VPlanet Granite
p877
sg6
(lp878
sg8
V1096708
p879
sg10
V37.80344765
p880
sg12
VDo
p881
sg14
(lp882
(dp883
a(dp884
Varea-code
p885
V415
p886
sVnumber
p887
V692 3434
p888
sa(dp889
asg21
(dp890
Vstreet
p891
V924 Old Mason St
p892
sVextras
p893
VGlass Palace
p894
sVlocality
p895
VCrissy Field
p896
ssa(dp897
g2
V-122.411
p898
sg4
VPrecita Eyes Mission Mural Tours
p899
sg6
(lp900
sg8
V1088609
p901
sg10
V37.75257
p902
sg12
VDo
p903
sg14
(lp904
(dp905
a(dp906
Vnumber
p907
V415-285-2287
p908
sa(dp909
asg21
(dp910
Vstreet
p911
V2981 24th street
p912
sVextras
p913
V(Mural Arts & Visitors Center)
p914
ssa(dp915
g2
V-122.459911108017
p916
sg4
VPresidio Bowl
p917
sg6
(lp918
sg8
V1056479
p919
sg10
V37.798615556188
p920
sg12
VDo
p921
sg14
(lp922
(dp923
a(dp924
Vtext
p925
Vtel, info
p926
sVarea-code
p927
V415
p928
sVnumber
p929
V561 2695
p930
sa(dp931
asg21
(dp932
Vextras
p933
VBldg 93
p934
sVlocality
p935
VThe Presidio
p936
ssa(dp937
g2
V-122.4600506
p938
sg4
VPresidio Golf Course
p939
sg6
(lp940
sg8
V1056466
p941
sg10
V37.79055716
p942
sg12
VDo
p943
sg14
(lp944
(dp945
a(dp946
Varea-code
p947
V415
p948
sVnumber
p949
V561 4661
p950
sa(dp951
asg21
(dp952
Vstreet
p953
VArguello Blvd & Finley Rd
p954
ssa(dp955
g4
VRamekins Culinary School
p956
sg6
(lp957
sg8
V1096770
p958
sg12
VDo
p959
sg14
(lp960
(dp961
a(dp962
Varea-code
p963
V707
p964
sVnumber
p965
V933 0450
p966
sa(dp967
asg21
(dp968
Vstreet
p969
V450 W Spain St
p970
sVlocality
p971
VSonoma
p972
ssa(dp973
g2
V-122.475773692131
p974
sg4
VSan Francisco Croquet Club
p975
sg6
(lp976
sg8
V1056469
p977
sg10
V37.7369279833183
p978
sg12
VDo
p979
sg14
(lp980
(dp981
a(dp982
Varea-code
p983
V415
p984
sVnumber
p985
V928 5525
p986
sa(dp987
asg21
(dp988
Vstreet
p989
V19th Ave & Wawona St
p990
sVextras
p991
VStern Grove
p992
ssa(dp993
g2
V-122.485220432281
p994
sg4
VSan Francisco Disc Golf
p995
sg6
(lp996
sg8
V1056474
p997
sg10
V37.7717663506548
p998
sg12
VDo
p999
sg14
(lp1000
(dp1001
asg21
(dp1002
Vstreet
p1003
VMarx Meadow Dr
p1004
sVextras
p1005
Vat Fulton St btwn 25th & 30th Aves
p1006
ssa(dp1007
g4
VSan Francisco Hang Gliding Center
p1008
sg6
(lp1009
sg8
V1056490
p1010
sg12
VDo
p1011
sg14
(lp1012
(dp1013
a(dp1014
Vnumber
p1015
V510 528 2300
p1016
sa(dp1017
asg21
(dp1018
Vextras
p1019
VMt Tamalpais
p1020
ssa(dp1021
g4
VSan Francisco International Lesbian & Gay Film Festival
p1022
sg6
(lp1023
sg8
V1056463
p1024
sg12
VDo
p1025
sg14
(lp1026
(dp1027
a(dp1028
Vtext
p1029
Vtel, info
p1030
sVarea-code
p1031
V415
p1032
sVnumber
p1033
V703 8650
p1034
sa(dp1035
asg21
(dp1036
Vextras
p1037
VCastro Theatre, the Roxie Cinema, & other local movie theatres
p1038
sVlocality
p1039
VThe Castro
p1040
ssa(dp1041
g2
V-122.4949011
p1042
sg4
VSan Francisco Model Yacht Club
p1043
sg6
(lp1044
sg8
V1056484
p1045
sg10
V37.77061202
p1046
sg12
VDo
p1047
sg14
(lp1048
(dp1049
a(dp1050
Varea-code
p1051
V415
p1052
sVnumber
p1053
V386 1037
p1054
sa(dp1055
asg21
(dp1056
Vextras
p1057
VSpreckels Lake, Golden Gate Park
p1058
ssa(dp1059
g2
V-122.4057
p1060
sg4
VSan Francisco School of Bartending
p1061
sg6
(lp1062
sg8
V1088584
p1063
sg10
V37.78612
p1064
sg12
VDo
p1065
sg14
(lp1066
(dp1067
a(dp1068
Varea-code
p1069
V415
p1070
sVnumber
p1071
V362 1116
p1072
sa(dp1073
asg21
(dp1074
Vstreet
p1075
V760 Market St
p1076
sVextras
p1077
VSuite 833
p1078
ssa(dp1079
g2
V-122.4213838577271
p1080
sg4
VSan Francisco Segway Tours
p1081
sg6
(lp1082
sg8
V1088650
p1083
sg10
V37.8065289741725
p1084
sg12
VDo
p1085
sg14
(lp1086
(dp1087
a(dp1088
Varea-code
p1089
V415
p1090
sVnumber
p1091
V474 3130
p1092
sa(dp1093
asg21
(dp1094
Vstreet
p1095
V757 Beach St
p1096
sVextras
p1097
Vtours depart from
p1098
ssa(dp1099
g2
V-122.40966796875
p1100
sg4
VSf Seaplane Tours
p1101
sg6
(lp1102
sg8
V1056495
p1103
sg10
V37.8085803056797
p1104
sg12
VDo
p1105
sg14
(lp1106
(dp1107
a(dp1108
Vtext
p1109
Vtel, info
p1110
sVarea-code
p1111
V415
p1112
sVnumber
p1113
V332 4843
p1114
sa(dp1115
asg21
(dp1116
Vlocality
p1117
VNorth Beach
p1118
ssa(dp1119
g4
VSonoma Valley Cyclery
p1120
sg6
(lp1121
sg8
V1096766
p1122
sg12
VDo
p1123
sg14
(lp1124
(dp1125
a(dp1126
Varea-code
p1127
V707
p1128
sVnumber
p1129
V935 3377
p1130
sa(dp1131
asg21
(dp1132
Vstreet
p1133
V20093 Broadway
p1134
sVlocality
p1135
VSonoma Valley
p1136
ssa(dp1137
g2
V-122.387121319771
p1138
sg4
VSpinnaker Sailing
p1139
sg6
(lp1140
sg8
V1056470
p1141
sg10
V37.7816753645535
p1142
sg12
VDo
p1143
sg14
(lp1144
(dp1145
a(dp1146
Varea-code
p1147
V415
p1148
sVnumber
p1149
V543 7333
p1150
sa(dp1151
asg21
(dp1152
Vextras
p1153
VPier 40
p1154
ssa(dp1155
g4
VSpoke Folk
p1156
sg6
(lp1157
sg8
V1096767
p1158
sg12
VDo
p1159
sg14
(lp1160
(dp1161
a(dp1162
Varea-code
p1163
V707
p1164
sVnumber
p1165
V433 7171
p1166
sa(dp1167
asg21
(dp1168
Vstreet
p1169
V201 Center St
p1170
ssa(dp1171
g2
V-122.474867105484
p1172
sg4
VStow Lake
p1173
sg6
(lp1174
sg8
V384093
p1175
sg10
V37.7688913432576
p1176
sg12
VDo
p1177
sg14
(lp1178
(dp1179
a(dp1180
Vnumber
p1181
V415-752-0357
p1182
sa(dp1183
asg21
(dp1184
Vextras
p1185
VGolden Gate Park
p1186
sVlocality
p1187
VHayes Valley
p1188
ssa(dp1189
g4
VThe Dyke March
p1190
sg6
(lp1191
sg8
V1056487
p1192
sg12
VDo
p1193
sg14
(lp1194
(dp1195
a(dp1196
Vtext
p1197
Vtel, info
p1198
sVarea-code
p1199
V415
p1200
sVnumber
p1201
V241 8882
p1202
sa(dp1203
asg21
(dp1204
Vextras
p1205
VDolores Park through the Mission to the Castro
p1206
sVlocality
p1207
VThe Castro
p1208
ssa(dp1209
g2
V-122.4053183
p1210
sg4
VTrue Massage & Wellness
p1211
sg6
(lp1212
sg8
V1096723
p1213
sg10
V37.7863816
p1214
sg12
VDo
p1215
sg14
(lp1216
(dp1217
a(dp1218
Varea-code
p1219
V415
p1220
sVnumber
p1221
V677 9461
p1222
sa(dp1223
asg21
(dp1224
Vstreet
p1225
V760 Market St
p1226
ssa(dp1227
g2
V-122.40752
p1228
sg4
VVerdi Club
p1229
sg6
(lp1230
sg8
V1088780
p1231
sg10
V37.7633
p1232
sg12
VDo
p1233
sg14
(lp1234
(dp1235
a(dp1236
Varea-code
p1237
V415
p1238
sVnumber
p1239
V861 9199
p1240
sa(dp1241
asg21
(dp1242
Vstreet
p1243
V2424 Mariposa St
p1244
ssa(dp1245
g2
V-122.4769117
p1246
sg4
VWheel Fun Rentals
p1247
sg6
(lp1248
sg8
V1056459
p1249
sg10
V37.7705883
p1250
sg12
VDo
p1251
sg14
(lp1252
(dp1253
a(dp1254
Varea-code
p1255
V415
p1256
sVnumber
p1257
V668 6699
p1258
sa(dp1259
asg21
(dp1260
Vstreet
p1261
V50 Stow Lake Dr
p1262
ssa(dp1263
g2
V-122.400749623775
p1264
sg4
VYerba Buena Center Ice Skating & Bowling
p1265
sg6
(lp1266
sg8
V1056458
p1267
sg10
V37.7828497723797
p1268
sg12
VDo
p1269
sg14
(lp1270
(dp1271
a(dp1272
Varea-code
p1273
V415
p1274
sVnumber
p1275
V820 3532
p1276
sa(dp1277
asg21
(dp1278
Vstreet
p1279
V750 Folsom St
p1280
ssa(dp1281
g2
V-122.420978844166
p1282
sg4
VYoga Tree
p1283
sg6
(lp1284
sg8
V1056457
p1285
sg10
V37.7528816993108
p1286
sg12
VDo
p1287
sg14
(lp1288
(dp1289
a(dp1290
Varea-code
p1291
V415
p1292
sVnumber
p1293
V647 9707
p1294
sa(dp1295
asg21
(dp1296
Vstreet
p1297
V1234 Valencia St
p1298
ssa(dp1299
g2
V-122.401873469353
p1300
sg4
VZeum
p1301
sg6
(lp1302
sg8
V1056482
p1303
sg10
V37.7831529107201
p1304
sg12
VDo
p1305
sg14
(lp1306
(dp1307
a(dp1308
Varea-code
p1309
V415
p1310
sVnumber
p1311
V820 3320
p1312
sa(dp1313
asg21
(dp1314
Vstreet
p1315
V221 4th St
p1316
ssa.